target datalayout = "e-m:e-p270:32:32-p271:32:32-p272:64:64-i64:64-i128:128-f80:128-n8:16:32:64-S128"
target triple = "x86_64-pc-linux-gnu"

%struct.KDF_PKCS12 = type { ptr, %struct.PROV_DIGEST, ptr, i64, ptr, i64, i64, i32 }
%struct.PROV_DIGEST = type { ptr, ptr, ptr }
%struct.ossl_param_st = type { ptr, i32, ptr, i64, i64 }

@.str = private unnamed_addr constant [54 x i8] c"../openssl/providers/implementations/kdfs/pkcs12kdf.c\00", align 1
@.str.3 = private unnamed_addr constant [5 x i8] c"pass\00", align 1
@.str.4 = private unnamed_addr constant [5 x i8] c"salt\00", align 1
@.str.5 = private unnamed_addr constant [5 x i8] c"iter\00", align 1
@.str.6 = private unnamed_addr constant [3 x i8] c"id\00", align 1

; Function Attrs: nounwind uwtable
define internal i32 @pkcs12kdf_set_membuf(ptr noundef %0, ptr noundef %1, ptr noundef %2) #0 {
  %4 = alloca i32, align 4
  %5 = alloca ptr, align 8
  %6 = alloca ptr, align 8
  %7 = alloca ptr, align 8
  store ptr %0, ptr %5, align 8, !tbaa !44
  store ptr %1, ptr %6, align 8, !tbaa !46
  store ptr %2, ptr %7, align 8, !tbaa !23
  %8 = load ptr, ptr %5, align 8, !tbaa !44
  %9 = load ptr, ptr %8, align 8, !tbaa !21
  %10 = load ptr, ptr %6, align 8, !tbaa !46
  %11 = load i64, ptr %10, align 8, !tbaa !22
  call void @CRYPTO_clear_free(ptr noundef %9, i64 noundef %11, ptr noundef @.str, i32 noundef 204)
  %12 = load ptr, ptr %5, align 8, !tbaa !44
  store ptr null, ptr %12, align 8, !tbaa !21
  %13 = load ptr, ptr %6, align 8, !tbaa !46
  store i64 0, ptr %13, align 8, !tbaa !22
  %14 = load ptr, ptr %7, align 8, !tbaa !23
  %15 = getelementptr inbounds nuw %struct.ossl_param_st, ptr %14, i32 0, i32 3
  %16 = load i64, ptr %15, align 8, !tbaa !48
  %17 = icmp eq i64 %16, 0
  br i1 %17, label %18, label %24

18:                                               ; preds = %3
  %19 = call noalias ptr @CRYPTO_malloc(i64 noundef 1, ptr noundef @.str, i32 noundef 209)
  %20 = load ptr, ptr %5, align 8, !tbaa !44
  store ptr %19, ptr %20, align 8, !tbaa !21
  %21 = icmp eq ptr %19, null
  br i1 %21, label %22, label %23

22:                                               ; preds = %18
  store i32 0, ptr %4, align 4
  br label %39

23:                                               ; preds = %18
  br label %38

24:                                               ; preds = %3
  %25 = load ptr, ptr %7, align 8, !tbaa !23
  %26 = getelementptr inbounds nuw %struct.ossl_param_st, ptr %25, i32 0, i32 2
  %27 = load ptr, ptr %26, align 8, !tbaa !49
  %28 = icmp ne ptr %27, null
  br i1 %28, label %29, label %37

29:                                               ; preds = %24
  %30 = load ptr, ptr %7, align 8, !tbaa !23
  %31 = load ptr, ptr %5, align 8, !tbaa !44
  %32 = load ptr, ptr %6, align 8, !tbaa !46
  %33 = call i32 @OSSL_PARAM_get_octet_string(ptr noundef %30, ptr noundef %31, i64 noundef 0, ptr noundef %32)
  %34 = icmp ne i32 %33, 0
  br i1 %34, label %36, label %35

35:                                               ; preds = %29
  store i32 0, ptr %4, align 4
  br label %39

36:                                               ; preds = %29
  br label %37

37:                                               ; preds = %36, %24
  br label %38

38:                                               ; preds = %37, %23
  store i32 1, ptr %4, align 4
  br label %39

39:                                               ; preds = %38, %35, %22
  %40 = load i32, ptr %4, align 4
  ret i32 %40
}

; Function Attrs: inlinehint nounwind uwtable
define internal i32 @ossl_param_is_empty(ptr noundef %0) #5 {
  %2 = alloca ptr, align 8
  store ptr %0, ptr %2, align 8, !tbaa !23
  %3 = load ptr, ptr %2, align 8, !tbaa !23
  %4 = icmp eq ptr %3, null
  br i1 %4, label %10, label %5

5:                                                ; preds = %1
  %6 = load ptr, ptr %2, align 8, !tbaa !23
  %7 = getelementptr inbounds nuw %struct.ossl_param_st, ptr %6, i32 0, i32 0
  %8 = load ptr, ptr %7, align 8, !tbaa !42
  %9 = icmp eq ptr %8, null
  br label %10

10:                                               ; preds = %5, %1
  %11 = phi i1 [ true, %1 ], [ %9, %5 ]
  %12 = zext i1 %11 to i32
  ret i32 %12
}

; Function Attrs: nounwind uwtable
define internal i32 @kdf_pkcs12_set_ctx_params(ptr noundef %0, ptr noundef %1) #0 {
  %3 = alloca i32, align 4
  %4 = alloca ptr, align 8
  %5 = alloca ptr, align 8
  %6 = alloca ptr, align 8
  %7 = alloca ptr, align 8
  %8 = alloca ptr, align 8
  %9 = alloca i32, align 4
  store ptr %0, ptr %4, align 8, !tbaa !3
  store ptr %1, ptr %5, align 8, !tbaa !23
  call void @llvm.lifetime.start.p0(i64 8, ptr %6) #6
  call void @llvm.lifetime.start.p0(i64 8, ptr %7) #6
  %10 = load ptr, ptr %4, align 8, !tbaa !3
  store ptr %10, ptr %7, align 8, !tbaa !3
  call void @llvm.lifetime.start.p0(i64 8, ptr %8) #6
  %11 = load ptr, ptr %7, align 8, !tbaa !3
  %12 = getelementptr inbounds nuw %struct.KDF_PKCS12, ptr %11, i32 0, i32 0
  %13 = load ptr, ptr %12, align 8, !tbaa !7
  %14 = call ptr @ossl_prov_ctx_get0_libctx(ptr noundef %13)
  store ptr %14, ptr %8, align 8, !tbaa !26
  %15 = load ptr, ptr %5, align 8, !tbaa !23
  %16 = call i32 @ossl_param_is_empty(ptr noundef %15)
  %17 = icmp ne i32 %16, 0
  br i1 %17, label %18, label %19

18:                                               ; preds = %2
  store i32 1, ptr %3, align 4
  store i32 1, ptr %9, align 4
  br label %80

19:                                               ; preds = %2
  %20 = load ptr, ptr %7, align 8, !tbaa !3
  %21 = getelementptr inbounds nuw %struct.KDF_PKCS12, ptr %20, i32 0, i32 1
  %22 = load ptr, ptr %5, align 8, !tbaa !23
  %23 = load ptr, ptr %8, align 8, !tbaa !26
  %24 = call i32 @ossl_prov_digest_load_from_params(ptr noundef %21, ptr noundef %22, ptr noundef %23)
  %25 = icmp ne i32 %24, 0
  br i1 %25, label %27, label %26

26:                                               ; preds = %19
  store i32 0, ptr %3, align 4
  store i32 1, ptr %9, align 4
  br label %80

27:                                               ; preds = %19
  %28 = load ptr, ptr %5, align 8, !tbaa !23
  %29 = call ptr @OSSL_PARAM_locate_const(ptr noundef %28, ptr noundef @.str.3)
  store ptr %29, ptr %6, align 8, !tbaa !23
  %30 = icmp ne ptr %29, null
  br i1 %30, label %31, label %41

31:                                               ; preds = %27
  %32 = load ptr, ptr %7, align 8, !tbaa !3
  %33 = getelementptr inbounds nuw %struct.KDF_PKCS12, ptr %32, i32 0, i32 2
  %34 = load ptr, ptr %7, align 8, !tbaa !3
  %35 = getelementptr inbounds nuw %struct.KDF_PKCS12, ptr %34, i32 0, i32 3
  %36 = load ptr, ptr %6, align 8, !tbaa !23
  %37 = call i32 @pkcs12kdf_set_membuf(ptr noundef %33, ptr noundef %35, ptr noundef %36)
  %38 = icmp ne i32 %37, 0
  br i1 %38, label %40, label %39

39:                                               ; preds = %31
  store i32 0, ptr %3, align 4
  store i32 1, ptr %9, align 4
  br label %80

40:                                               ; preds = %31
  br label %41

41:                                               ; preds = %40, %27
  %42 = load ptr, ptr %5, align 8, !tbaa !23
  %43 = call ptr @OSSL_PARAM_locate_const(ptr noundef %42, ptr noundef @.str.4)
  store ptr %43, ptr %6, align 8, !tbaa !23
  %44 = icmp ne ptr %43, null
  br i1 %44, label %45, label %55

45:                                               ; preds = %41
  %46 = load ptr, ptr %7, align 8, !tbaa !3
  %47 = getelementptr inbounds nuw %struct.KDF_PKCS12, ptr %46, i32 0, i32 4
  %48 = load ptr, ptr %7, align 8, !tbaa !3
  %49 = getelementptr inbounds nuw %struct.KDF_PKCS12, ptr %48, i32 0, i32 5
  %50 = load ptr, ptr %6, align 8, !tbaa !23
  %51 = call i32 @pkcs12kdf_set_membuf(ptr noundef %47, ptr noundef %49, ptr noundef %50)
  %52 = icmp ne i32 %51, 0
  br i1 %52, label %54, label %53

53:                                               ; preds = %45
  store i32 0, ptr %3, align 4
  store i32 1, ptr %9, align 4
  br label %80

54:                                               ; preds = %45
  br label %55

55:                                               ; preds = %54, %41
  %56 = load ptr, ptr %5, align 8, !tbaa !23
  %57 = call ptr @OSSL_PARAM_locate_const(ptr noundef %56, ptr noundef @.str.6)
  store ptr %57, ptr %6, align 8, !tbaa !23
  %58 = icmp ne ptr %57, null
  br i1 %58, label %59, label %67

59:                                               ; preds = %55
  %60 = load ptr, ptr %6, align 8, !tbaa !23
  %61 = load ptr, ptr %7, align 8, !tbaa !3
  %62 = getelementptr inbounds nuw %struct.KDF_PKCS12, ptr %61, i32 0, i32 7
  %63 = call i32 @OSSL_PARAM_get_int(ptr noundef %60, ptr noundef %62)
  %64 = icmp ne i32 %63, 0
  br i1 %64, label %66, label %65

65:                                               ; preds = %59
  store i32 0, ptr %3, align 4
  store i32 1, ptr %9, align 4
  br label %80

66:                                               ; preds = %59
  br label %67

67:                                               ; preds = %66, %55
  %68 = load ptr, ptr %5, align 8, !tbaa !23
  %69 = call ptr @OSSL_PARAM_locate_const(ptr noundef %68, ptr noundef @.str.5)
  store ptr %69, ptr %6, align 8, !tbaa !23
  %70 = icmp ne ptr %69, null
  br i1 %70, label %71, label %79

71:                                               ; preds = %67
  %72 = load ptr, ptr %6, align 8, !tbaa !23
  %73 = load ptr, ptr %7, align 8, !tbaa !3
  %74 = getelementptr inbounds nuw %struct.KDF_PKCS12, ptr %73, i32 0, i32 6
  %75 = call i32 @OSSL_PARAM_get_uint64(ptr noundef %72, ptr noundef %74)
  %76 = icmp ne i32 %75, 0
  br i1 %76, label %78, label %77

77:                                               ; preds = %71
  store i32 0, ptr %3, align 4
  store i32 1, ptr %9, align 4
  br label %80

78:                                               ; preds = %71
  br label %79

79:                                               ; preds = %78, %67
  store i32 1, ptr %3, align 4
  store i32 1, ptr %9, align 4
  br label %80

80:                                               ; preds = %79, %77, %65, %53, %39, %26, %18
  call void @llvm.lifetime.end.p0(i64 8, ptr %8) #6
  call void @llvm.lifetime.end.p0(i64 8, ptr %7) #6
  call void @llvm.lifetime.end.p0(i64 8, ptr %6) #6
  %81 = load i32, ptr %3, align 4
  ret i32 %81
}