; Function Attrs: nounwind uwtable
define internal range(i32 0, 2) i32 @kdf_pkcs12_set_ctx_params(ptr noundef %0, ptr noundef %1) #0 {
  %3 = load ptr, ptr %0, align 8, !tbaa !3
  %4 = tail call ptr @ossl_prov_ctx_get0_libctx(ptr noundef %3) #6
  %5 = icmp eq ptr %1, null
  br i1 %5, label %ossl_param_is_empty.exit.thread, label %ossl_param_is_empty.exit

ossl_param_is_empty.exit:                         ; preds = %2
  %6 = load ptr, ptr %1, align 8, !tbaa !28
  %.not = icmp eq ptr %6, null
  br i1 %.not, label %ossl_param_is_empty.exit.thread, label %7

7:                                                ; preds = %ossl_param_is_empty.exit
  %8 = getelementptr inbounds nuw i8, ptr %0, i64 8
  %9 = tail call i32 @ossl_prov_digest_load_from_params(ptr noundef nonnull %8, ptr noundef nonnull %1, ptr noundef %4) #6
  %.not24 = icmp eq i32 %9, 0
  br i1 %.not24, label %ossl_param_is_empty.exit.thread, label %10

10:                                               ; preds = %7
  %11 = tail call ptr @OSSL_PARAM_locate_const(ptr noundef nonnull %1, ptr noundef nonnull @.str.3) #6
  %.not25 = icmp eq ptr %11, null
  br i1 %.not25, label %pkcs12kdf_set_membuf.exit, label %12

12:                                               ; preds = %10
  %13 = getelementptr inbounds nuw i8, ptr %0, i64 32
  %14 = getelementptr inbounds nuw i8, ptr %0, i64 40
  %15 = load ptr, ptr %13, align 8, !tbaa !30
  %16 = load i64, ptr %14, align 8, !tbaa !31
  tail call void @CRYPTO_clear_free(ptr noundef %15, i64 noundef %16, ptr noundef nonnull @.str, i32 noundef 204) #6
  %17 = getelementptr inbounds nuw i8, ptr %11, i64 24
  tail call void @llvm.memset.p0.i64(ptr noundef nonnull align 8 dereferenceable(16) %13, i8 0, i64 16, i1 false)
  %18 = load i64, ptr %17, align 8, !tbaa !32
  %19 = icmp eq i64 %18, 0
  br i1 %19, label %20, label %23

20:                                               ; preds = %12
  %21 = tail call noalias ptr @CRYPTO_malloc(i64 noundef 1, ptr noundef nonnull @.str, i32 noundef 209) #6
  store ptr %21, ptr %13, align 8, !tbaa !30
  %22 = icmp eq ptr %21, null
  br i1 %22, label %ossl_param_is_empty.exit.thread, label %pkcs12kdf_set_membuf.exit

23:                                               ; preds = %12
  %24 = getelementptr inbounds nuw i8, ptr %11, i64 16
  %25 = load ptr, ptr %24, align 8, !tbaa !33
  %.not.i = icmp eq ptr %25, null
  br i1 %.not.i, label %pkcs12kdf_set_membuf.exit, label %26

26:                                               ; preds = %23
  %27 = tail call i32 @OSSL_PARAM_get_octet_string(ptr noundef nonnull %11, ptr noundef nonnull %13, i64 noundef 0, ptr noundef nonnull %14) #6
  %.not10.i = icmp eq i32 %27, 0
  br i1 %.not10.i, label %ossl_param_is_empty.exit.thread, label %pkcs12kdf_set_membuf.exit

pkcs12kdf_set_membuf.exit:                        ; preds = %26, %23, %20, %10
  %28 = tail call ptr @OSSL_PARAM_locate_const(ptr noundef nonnull %1, ptr noundef nonnull @.str.4) #6
  %.not27 = icmp eq ptr %28, null
  br i1 %.not27, label %pkcs12kdf_set_membuf.exit36, label %29

29:                                               ; preds = %pkcs12kdf_set_membuf.exit
  %30 = getelementptr inbounds nuw i8, ptr %0, i64 48
  %31 = getelementptr inbounds nuw i8, ptr %0, i64 56
  %32 = load ptr, ptr %30, align 8, !tbaa !30
  %33 = load i64, ptr %31, align 8, !tbaa !31
  tail call void @CRYPTO_clear_free(ptr noundef %32, i64 noundef %33, ptr noundef nonnull @.str, i32 noundef 204) #6
  %34 = getelementptr inbounds nuw i8, ptr %28, i64 24
  tail call void @llvm.memset.p0.i64(ptr noundef nonnull align 8 dereferenceable(16) %30, i8 0, i64 16, i1 false)
  %35 = load i64, ptr %34, align 8, !tbaa !32
  %36 = icmp eq i64 %35, 0
  br i1 %36, label %37, label %40

37:                                               ; preds = %29
  %38 = tail call noalias ptr @CRYPTO_malloc(i64 noundef 1, ptr noundef nonnull @.str, i32 noundef 209) #6
  store ptr %38, ptr %30, align 8, !tbaa !30
  %39 = icmp eq ptr %38, null
  br i1 %39, label %ossl_param_is_empty.exit.thread, label %pkcs12kdf_set_membuf.exit36

40:                                               ; preds = %29
  %41 = getelementptr inbounds nuw i8, ptr %28, i64 16
  %42 = load ptr, ptr %41, align 8, !tbaa !33
  %.not.i33 = icmp eq ptr %42, null
  br i1 %.not.i33, label %pkcs12kdf_set_membuf.exit36, label %43

43:                                               ; preds = %40
  %44 = tail call i32 @OSSL_PARAM_get_octet_string(ptr noundef nonnull %28, ptr noundef nonnull %30, i64 noundef 0, ptr noundef nonnull %31) #6
  %.not10.i34 = icmp eq i32 %44, 0
  br i1 %.not10.i34, label %ossl_param_is_empty.exit.thread, label %pkcs12kdf_set_membuf.exit36

pkcs12kdf_set_membuf.exit36:                      ; preds = %43, %40, %37, %pkcs12kdf_set_membuf.exit
  %45 = tail call ptr @OSSL_PARAM_locate_const(ptr noundef nonnull %1, ptr noundef nonnull @.str.6) #6
  %.not29 = icmp eq ptr %45, null
  br i1 %.not29, label %49, label %46

46:                                               ; preds = %pkcs12kdf_set_membuf.exit36
  %47 = getelementptr inbounds nuw i8, ptr %0, i64 72
  %48 = tail call i32 @OSSL_PARAM_get_int(ptr noundef nonnull %45, ptr noundef nonnull %47) #6
  %.not30 = icmp eq i32 %48, 0
  br i1 %.not30, label %ossl_param_is_empty.exit.thread, label %49

49:                                               ; preds = %46, %pkcs12kdf_set_membuf.exit36
  %50 = tail call ptr @OSSL_PARAM_locate_const(ptr noundef nonnull %1, ptr noundef nonnull @.str.5) #6
  %.not31 = icmp eq ptr %50, null
  br i1 %.not31, label %54, label %51

51:                                               ; preds = %49
  %52 = getelementptr inbounds nuw i8, ptr %0, i64 64
  %53 = tail call i32 @OSSL_PARAM_get_uint64(ptr noundef nonnull %50, ptr noundef nonnull %52) #6
  %.not32 = icmp eq i32 %53, 0
  br i1 %.not32, label %ossl_param_is_empty.exit.thread, label %54

54:                                               ; preds = %51, %49
  br label %ossl_param_is_empty.exit.thread

ossl_param_is_empty.exit.thread:                  ; preds = %43, %37, %26, %20, %2, %51, %46, %7, %ossl_param_is_empty.exit, %54
  %.0 = phi i32 [ 1, %54 ], [ 1, %ossl_param_is_empty.exit ], [ 0, %7 ], [ 0, %46 ], [ 0, %51 ], [ 1, %2 ], [ 0, %20 ], [ 0, %26 ], [ 0, %37 ], [ 0, %43 ]
  ret i32 %.0
}